; Function Attrs: mustprogress nofree norecurse nosync nounwind willreturn memory(read, inaccessiblemem: none) uwtable
define hidden i32 @ncnn_layer_get_bottom(ptr nocapture noundef readonly %0, i32 noundef %1) local_unnamed_addr #13 {
  %3 = load ptr, ptr %0, align 8
  %4 = getelementptr inbounds nuw i8, ptr %3, i64 112
  %5 = sext i32 %1 to i64
  %6 = load ptr, ptr %4, align 8
  %7 = getelementptr inbounds i32, ptr %6, i64 %5
  %8 = load i32, ptr %7, align 4
  ret i32 %8
}